; Function Attrs: mustprogress nounwind uwtable
define internal fastcc void @_ZN6icu_7710MemoryPoolIN12_GLOBAL__N_118AttributeListEntryELi8EED2Ev(ptr noundef nonnull readonly align 8 captures(none) dereferenceable(88) %0) unnamed_addr #0 align 2 personality ptr @__gxx_personality_v0 {
  %2 = load i32, ptr %0, align 8, !tbaa !51
  %3 = icmp sgt i32 %2, 0
  br i1 %3, label %.lr.ph, label %._crit_edge

.lr.ph:                                           ; preds = %1
  %4 = getelementptr inbounds nuw i8, ptr %0, i64 8
  br label %11

._crit_edge:                                      ; preds = %17, %1
  %5 = getelementptr inbounds nuw i8, ptr %0, i64 20
  %.val5 = load i8, ptr %5, align 4, !tbaa !58
  %.not.i.i = icmp eq i8 %.val5, 0
  br i1 %.not.i.i, label %_ZN6icu_7715MaybeStackArrayIPN12_GLOBAL__N_118AttributeListEntryELi8EED2Ev.exit, label %6

6:                                                ; preds = %._crit_edge
  %7 = getelementptr inbounds nuw i8, ptr %0, i64 8
  %.val4 = load ptr, ptr %7, align 8
  invoke void @uprv_free_77(ptr noundef %.val4)
          to label %_ZN6icu_7715MaybeStackArrayIPN12_GLOBAL__N_118AttributeListEntryELi8EED2Ev.exit unwind label %8

8:                                                ; preds = %6
  %9 = landingpad { ptr, i32 }
          catch ptr null
  %10 = extractvalue { ptr, i32 } %9, 0
  tail call void @__clang_call_terminate(ptr %10) #19
  unreachable

_ZN6icu_7715MaybeStackArrayIPN12_GLOBAL__N_118AttributeListEntryELi8EED2Ev.exit: ; preds = %._crit_edge, %6
  ret void

11:                                               ; preds = %.lr.ph, %17
  %12 = phi i32 [ %2, %.lr.ph ], [ %18, %17 ]
  %indvars.iv = phi i64 [ 0, %.lr.ph ], [ %indvars.iv.next, %17 ]
  %.val = load ptr, ptr %4, align 8, !tbaa !56
  %13 = getelementptr inbounds nuw ptr, ptr %.val, i64 %indvars.iv
  %14 = load ptr, ptr %13, align 8, !tbaa !77
  %15 = icmp eq ptr %14, null
  br i1 %15, label %17, label %16

16:                                               ; preds = %11
  tail call void @_ZN6icu_777UMemorydlEPv(ptr noundef nonnull %14) #17
  %.pre = load i32, ptr %0, align 8, !tbaa !51
  br label %17

17:                                               ; preds = %11, %16
  %18 = phi i32 [ %12, %11 ], [ %.pre, %16 ]
  %indvars.iv.next = add nuw nsw i64 %indvars.iv, 1
  %19 = sext i32 %18 to i64
  %20 = icmp slt i64 %indvars.iv.next, %19
  br i1 %20, label %11, label %._crit_edge, !llvm.loop !102
}